(dp1
S'output'
p2
S"<type 'exceptions.ValueError'> Expecting property name: line 15 column 9 (char 375)"
p3
sS'layer'
p4
S'/var/www/web2py/applications/sco_broker/controllers/v2.py'
p5
sS'code'
p6
S'# coding: utf8\nauth.settings.allow_basic_login = True\n@auth.requires_login()\ndef catalog():\n    from gluon.tools import Auth\n    import yaml\n    import json\n    with open(\'/settings_sco.yml\', \'r\') as f:\n        yaml_settings = yaml.load(f)\n    json_settings = json.dumps(yaml_settings)\n    data = json.loads(json_settings)\n    return data[\'catalog\']\n\n@auth.requires_login()\ndef test_sco():\n    import uuid, os, yaml, json, docker, requests\n    id = request.args\n    with open(\'/settings_sco.yml\', \'r\') as f:\n        yaml_settings = yaml.load(f)\n    json_settings = json.dumps(yaml_settings)\n    data = json.loads(json_settings)\n    sco_api_url = data[\'pattern\'][\'api_ep\'][0][\'url\']\n    sco_api_user = data[\'pattern\'][\'api_ep\'][0][\'user\']\n    sco_api_password = data[\'pattern\'][\'api_ep\'][0][\'password\']\n    sco_api_headers = data[\'pattern\'][\'api_ep\'][0][\'headers\']\n    with open(\'/sco_pattern.json\') as json_content:\n        build_content = json.load(json_content)\n    r = requests.post(sco_api_url+\'/resources/virtualSystems\', verify=False, auth=(sco_api_user, sco_api_password), headers=sco_api_headers, data=build_content)\n    return r.text\n\n\n@auth.requires_login()\ndef service_instances():\n    import uuid, os, yaml, json, docker\n    id = request.args\n    with open(\'/settings_sco.yml\', \'r\') as f:\n        yaml_settings = yaml.load(f)\n    json_settings = json.dumps(yaml_settings)\n    data = json.loads(json_settings)\n    sco_api_url = data[\'pattern\'][\'api_ep\'][0][\'url\']\n    sco_api_user = data[\'pattern\'][\'api_ep\'][0][\'user\']\n    sco_api_password = data[\'pattern\'][\'api_ep\'][0][\'password\']\n    scp_api_headers = data[\'pattern\'][\'api_ep\'][0][\'headers\']\n    sco_hostname = str(id)\n    c = docker.Client(base_url=\'unix://var/run/docker.sock\')\n    if len(id) == 1:\n        if request.env.request_method == "PUT":\n            container = c.create_container(\'tutum/redis\', hostname=host, environment=["REDIS_PASS="+password], ports=[27017])\n            c.start(container, port_bindings={27017:(\'0.0.0.0\',)})\n            response = { "dashboard_url": container[\'Id\'] }\n            return response\n        if request.env.request_method == "DELETE":\n            try:\n                list = []\n                containers_l = c.containers()\n                for x in containers_l:\n                    cont_deep = c.inspect_container(x[\'Id\'])\n                    list.append(cont_deep)\n                for y in list:\n                    if y[\'Config\'][\'Hostname\'] == host:\n                        id_container = y[\'ID\']\n                c.stop(id_container)\n                c.remove_container(id_container)\n                response = {}\n                return response\n            except:\n                raise HTTP(410, "Gone")\n                response = {}\n                return response\n    #if id[1] == "service_instances":\n    if len(id) > 1:\n        if request.env.request_method == "PUT":\n            list = []\n            containers_l = c.containers()\n            for x in containers_l:\n                cont_deep = c.inspect_container(x[\'Id\'])\n                list.append(cont_deep)\n            for y in list:\n                if y[\'Config\'][\'Hostname\'] == host:\n                    IpAddr = y[\'NetworkSettings\'][\'IPAddress\']\n                    Port = y[\'NetworkSettings\'][\'Ports\']\n            response = {"credentials": {"password": password,"host": IpAddr,"port": Port}}\n            return response\n        if request.env.request_method == "DELETE":\n            response = {}\n            return response\n\nresponse._vars=response._caller(test_sco)\n'
p7
sS'snapshot'
p8
(dp9
S'exception'
p10
(dp11
S'__hash__'
p12
S"<method-wrapper '__hash__' of exceptions.ValueError object>"
p13
sS'__setattr__'
p14
S"<method-wrapper '__setattr__' of exceptions.ValueError object>"
p15
sS'__reduce_ex__'
p16
S'<built-in method __reduce_ex__ of exceptions.ValueError object>'
p17
sS'__getslice__'
p18
S"<method-wrapper '__getslice__' of exceptions.ValueError object>"
p19
sS'__getitem__'
p20
S"<method-wrapper '__getitem__' of exceptions.ValueError object>"
p21
sS'__setstate__'
p22
S'<built-in method __setstate__ of exceptions.ValueError object>'
p23
sS'args'
p24
S"('Expecting property name: line 15 column 9 (char 375)',)"
p25
sS'__reduce__'
p26
S'<built-in method __reduce__ of exceptions.ValueError object>'
p27
sS'__str__'
p28
S"<method-wrapper '__str__' of exceptions.ValueError object>"
p29
sS'__format__'
p30
S'<built-in method __format__ of exceptions.ValueError object>'
p31
sS'__getattribute__'
p32
S"<method-wrapper '__getattribute__' of exceptions.ValueError object>"
p33
sS'__class__'
p34
S"<type 'exceptions.ValueError'>"
p35
sS'__unicode__'
p36
S'<built-in method __unicode__ of exceptions.ValueError object>'
p37
sS'__delattr__'
p38
S"<method-wrapper '__delattr__' of exceptions.ValueError object>"
p39
sS'__subclasshook__'
p40
S'<built-in method __subclasshook__ of type object>'
p41
sS'__repr__'
p42
S"<method-wrapper '__repr__' of exceptions.ValueError object>"
p43
sS'__dict__'
p44
S'{}'
p45
sS'__sizeof__'
p46
S'<built-in method __sizeof__ of exceptions.ValueError object>'
p47
sS'__doc__'
p48
S"'Inappropriate argument value (of correct type).'"
p49
sS'__init__'
p50
S"<method-wrapper '__init__' of exceptions.ValueError object>"
p51
sS'__new__'
p52
S'<built-in method __new__ of type object>'
p53
ssS'evalue'
p54
S'Expecting property name: line 15 column 9 (char 375)'
p55
sS'request'
p56
cgluon.html
XML_unpickle
p57
(S'sfL\x00\x00<div><table><tr><td style="font-weight:bold;vertical-align:top;">ajax</td><td style="vertical-align:top;">:</td><td><div>False</div></td></tr><tr><td style="font-weight:bold;vertical-align:top;">application</td><td style="vertical-align:top;">:</td><td><div>sco_broker</div></td></tr><tr><td style="font-weight:bold;vertical-align:top;">args</td><td style="vertical-align:top;">:</td><td><div><table></table></div></td></tr><tr><td style="font-weight:bold;vertical-align:top;">cid</td><td style="vertical-align:top;">:</td><td><div>None</div></td></tr><tr><td style="font-weight:bold;vertical-align:top;">client</td><td style="vertical-align:top;">:</td><td><div>201.52.227.105</div></td></tr><tr><td style="font-weight:bold;vertical-align:top;">controller</td><td style="vertical-align:top;">:</td><td><div>v2</div></td></tr><tr><td style="font-weight:bold;vertical-align:top;">cookies</td><td style="vertical-align:top;">:</td><td><div><table><tr><td style="font-weight:bold;vertical-align:top;">session_id_admin</td><td style="vertical-align:top;">:</td><td><div>201.52.227.105-a8748e79-69db-4315-b8f5-6ee6763ea14e<table><tr><td style="font-weight:bold;vertical-align:top;">comment</td><td style="vertical-align:top;">:</td><td><div></div></td></tr><tr><td style="font-weight:bold;vertical-align:top;">domain</td><td style="vertical-align:top;">:</td><td><div></div></td></tr><tr><td style="font-weight:bold;vertical-align:top;">expires</td><td style="vertical-align:top;">:</td><td><div></div></td></tr><tr><td style="font-weight:bold;vertical-align:top;">httponly</td><td style="vertical-align:top;">:</td><td><div></div></td></tr><tr><td style="font-weight:bold;vertical-align:top;">max-age</td><td style="vertical-align:top;">:</td><td><div></div></td></tr><tr><td style="font-weight:bold;vertical-align:top;">path</td><td style="vertical-align:top;">:</td><td><div></div></td></tr><tr><td style="font-weight:bold;vertical-align:top;">secure</td><td style="vertical-align:top;">:</td><td><div></div></td></tr><tr><td style="font-weight:bold;vertical-align:top;">version</td><td style="vertical-align:top;">:</td><td><div></div></td></tr></table></div></td></tr><tr><td style="font-weight:bold;vertical-align:top;">session_id_sco_broker</td><td style="vertical-align:top;">:</td><td><div>201.52.227.105-1abdabde-97c0-4e09-85c7-f6683020c254<table><tr><td style="font-weight:bold;vertical-align:top;">comment</td><td style="vertical-align:top;">:</td><td><div></div></td></tr><tr><td style="font-weight:bold;vertical-align:top;">domain</td><td style="vertical-align:top;">:</td><td><div></div></td></tr><tr><td style="font-weight:bold;vertical-align:top;">expires</td><td style="vertical-align:top;">:</td><td><div></div></td></tr><tr><td style="font-weight:bold;vertical-align:top;">httponly</td><td style="vertical-align:top;">:</td><td><div></div></td></tr><tr><td style="font-weight:bold;vertical-align:top;">max-age</td><td style="vertical-align:top;">:</td><td><div></div></td></tr><tr><td style="font-weight:bold;vertical-align:top;">path</td><td style="vertical-align:top;">:</td><td><div></div></td></tr><tr><td style="font-weight:bold;vertical-align:top;">secure</td><td style="vertical-align:top;">:</td><td><div></div></td></tr><tr><td style="font-weight:bold;vertical-align:top;">version</td><td style="vertical-align:top;">:</td><td><div></div></td></tr></table></div></td></tr></table></div></td></tr><tr><td style="font-weight:bold;vertical-align:top;">env</td><td style="vertical-align:top;">:</td><td><div><table><tr><td style="font-weight:bold;vertical-align:top;">CONTENT_LENGTH</td><td style="vertical-align:top;">:</td><td><div></div></td></tr><tr><td style="font-weight:bold;vertical-align:top;">CONTENT_TYPE</td><td style="vertical-align:top;">:</td><td><div></div></td></tr><tr><td style="font-weight:bold;vertical-align:top;">DOCUMENT_ROOT</td><td style="vertical-align:top;">:</td><td><div>/etc/nginx/html</div></td></tr><tr><td style="font-weight:bold;vertical-align:top;">HTTPS</td><td style="vertical-align:top;">:</td><td><div>on</div></td></tr><tr><td style="font-weight:bold;vertical-align:top;">HTTP_ACCEPT</td><td style="vertical-align:top;">:</td><td><div>text/html,application/xhtml+xml,application/xml;q=0.9,image/webp,*/*;q=0.8</div></td></tr><tr><td style="font-weight:bold;vertical-align:top;">HTTP_ACCEPT_ENCODING</td><td style="vertical-align:top;">:</td><td><div>gzip,deflate,sdch</div></td></tr><tr><td style="font-weight:bold;vertical-align:top;">HTTP_ACCEPT_LANGUAGE</td><td style="vertical-align:top;">:</td><td><div>en-US,en;q=0.8,pt;q=0.6</div></td></tr><tr><td style="font-weight:bold;vertical-align:top;">HTTP_CACHE_CONTROL</td><td style="vertical-align:top;">:</td><td><div>max-age=0</div></td></tr><tr><td style="font-weight:bold;vertical-align:top;">HTTP_CONNECTION</td><td style="vertical-align:top;">:</td><td><div>keep-alive</div></td></tr><tr><td style="font-weight:bold;vertical-align:top;">HTTP_COOKIE</td><td style="vertical-align:top;">:</td><td><div>session_id_admin=201.52.227.105-a8748e79-69db-4315-b8f5-6ee6763ea14e; session_id_sco_broker=201.52.227.105-1abdabde-97c0-4e09-85c7-f6683020c254</div></td></tr><tr><td style="font-weight:bold;vertical-align:top;">HTTP_HOST</td><td style="vertical-align:top;">:</td><td><div>www.rcsousa.com.br</div></td></tr><tr><td style="font-weight:bold;vertical-align:top;">HTTP_USER_AGENT</td><td style="vertical-align:top;">:</td><td><div>Mozilla/5.0 (Macintosh; Intel Mac OS X 10_9_3) AppleWebKit/537.36 (KHTML, like Gecko) Chrome/35.0.1916.153 Safari/537.36</div></td></tr><tr><td style="font-weight:bold;vertical-align:top;">PATH_INFO</td><td style="vertical-align:top;">:</td><td><div>/sco_broker/v2/test_sco</div></td></tr><tr><td style="font-weight:bold;vertical-align:top;">QUERY_STRING</td><td style="vertical-align:top;">:</td><td><div></div></td></tr><tr><td style="font-weight:bold;vertical-align:top;">REMOTE_ADDR</td><td style="vertical-align:top;">:</td><td><div>201.52.227.105</div></td></tr><tr><td style="font-weight:bold;vertical-align:top;">REMOTE_PORT</td><td style="vertical-align:top;">:</td><td><div>62134</div></td></tr><tr><td style="font-weight:bold;vertical-align:top;">REQUEST_METHOD</td><td style="vertical-align:top;">:</td><td><div>GET</div></td></tr><tr><td style="font-weight:bold;vertical-align:top;">REQUEST_URI</td><td style="vertical-align:top;">:</td><td><div>/sco_broker/v2/test_sco</div></td></tr><tr><td style="font-weight:bold;vertical-align:top;">SERVER_NAME</td><td style="vertical-align:top;">:</td><td><div>dev-rcsousa-03.rcsousa.com.br</div></td></tr><tr><td style="font-weight:bold;vertical-align:top;">SERVER_PORT</td><td style="vertical-align:top;">:</td><td><div>443</div></td></tr><tr><td style="font-weight:bold;vertical-align:top;">SERVER_PROTOCOL</td><td style="vertical-align:top;">:</td><td><div>HTTP/1.1</div></td></tr><tr><td style="font-weight:bold;vertical-align:top;">SERVER_SOFTWARE</td><td style="vertical-align:top;">:</td><td><div>nginx/1.4.1</div></td></tr><tr><td style="font-weight:bold;vertical-align:top;">UWSGI_SCHEME</td><td style="vertical-align:top;">:</td><td><div>https</div></td></tr><tr><td style="font-weight:bold;vertical-align:top;">app_folders</td><td style="vertical-align:top;">:</td><td><div>set([&#x27;/var/www/web2py/applications/sco_broker/&#x27;])</div></td></tr><tr><td style="font-weight:bold;vertical-align:top;">applications_parent</td><td style="vertical-align:top;">:</td><td><div>/var/www/web2py</div></td></tr><tr><td style="font-weight:bold;vertical-align:top;">content_length</td><td style="vertical-align:top;">:</td><td><div></div></td></tr><tr><td style="font-weight:bold;vertical-align:top;">content_type</td><td style="vertical-align:top;">:</td><td><div></div></td></tr><tr><td style="font-weight:bold;vertical-align:top;">db_sessions</td><td style="vertical-align:top;">:</td><td><div>set([])</div></td></tr><tr><td style="font-weight:bold;vertical-align:top;">debugging</td><td style="vertical-align:top;">:</td><td><div>False</div></td></tr><tr><td style="font-weight:bold;vertical-align:top;">document_root</td><td style="vertical-align:top;">:</td><td><div>/etc/nginx/html</div></td></tr><tr><td style="font-weight:bold;vertical-align:top;">gluon_parent</td><td style="vertical-align:top;">:</td><td><div>/var/www/web2py</div></td></tr><tr><td style="font-weight:bold;vertical-align:top;">http_accept</td><td style="vertical-align:top;">:</td><td><div>text/html,application/xhtml+xml,application/xml;q=0.9,image/webp,*/*;q=0.8</div></td></tr><tr><td style="font-weight:bold;vertical-align:top;">http_accept_encoding</td><td style="vertical-align:top;">:</td><td><div>gzip,deflate,sdch</div></td></tr><tr><td style="font-weight:bold;vertical-align:top;">http_accept_language</td><td style="vertical-align:top;">:</td><td><div>en-US,en;q=0.8,pt;q=0.6</div></td></tr><tr><td style="font-weight:bold;vertical-align:top;">http_cache_control</td><td style="vertical-align:top;">:</td><td><div>max-age=0</div></td></tr><tr><td style="font-weight:bold;vertical-align:top;">http_connection</td><td style="vertical-align:top;">:</td><td><div>keep-alive</div></td></tr><tr><td style="font-weight:bold;vertical-align:top;">http_cookie</td><td style="vertical-align:top;">:</td><td><div>session_id_admin=201.52.227.105-a8748e79-69db-4315-b8f5-6ee6763ea14e; session_id_sco_broker=201.52.227.105-1abdabde-97c0-4e09-85c7-f6683020c254</div></td></tr><tr><td style="font-weight:bold;vertical-align:top;">http_host</td><td style="vertical-align:top;">:</td><td><div>www.rcsousa.com.br</div></td></tr><tr><td style="font-weight:bold;vertical-align:top;">http_user_agent</td><td style="vertical-align:top;">:</td><td><div>Mozilla/5.0 (Macintosh; Intel Mac OS X 10_9_3) AppleWebKit/537.36 (KHTML, like Gecko) Chrome/35.0.1916.153 Safari/537.36</div></td></tr><tr><td style="font-weight:bold;vertical-align:top;">https</td><td style="vertical-align:top;">:</td><td><div>on</div></td></tr><tr><td style="font-weight:bold;vertical-align:top;">is_jython</td><td style="vertical-align:top;">:</td><td><div>False</div></td></tr><tr><td style="font-weight:bold;vertical-align:top;">is_pypy</td><td style="vertical-align:top;">:</td><td><div>False</div></td></tr><tr><td style="font-weight:bold;vertical-align:top;">is_source</td><td style="vertical-align:top;">:</td><td><div>True</div></td></tr><tr><td style="font-weight:bold;vertical-align:top;">path_info</td><td style="vertical-align:top;">:</td><td><div>/sco_broker/v2/test_sco</div></td></tr><tr><td style="font-weight:bold;vertical-align:top;">query_string</td><td style="vertical-align:top;">:</td><td><div></div></td></tr><tr><td style="font-weight:bold;vertical-align:top;">remote_addr</td><td style="vertical-align:top;">:</td><td><div>201.52.227.105</div></td></tr><tr><td style="font-weight:bold;vertical-align:top;">remote_port</td><td style="vertical-align:top;">:</td><td><div>62134</div></td></tr><tr><td style="font-weight:bold;vertical-align:top;">request_method</td><td style="vertical-align:top;">:</td><td><div>GET</div></td></tr><tr><td style="font-weight:bold;vertical-align:top;">request_uri</td><td style="vertical-align:top;">:</td><td><div>/sco_broker/v2/test_sco</div></td></tr><tr><td style="font-weight:bold;vertical-align:top;">server_name</td><td style="vertical-align:top;">:</td><td><div>dev-rcsousa-03.rcsousa.com.br</div></td></tr><tr><td style="font-weight:bold;vertical-align:top;">server_port</td><td style="vertical-align:top;">:</td><td><div>443</div></td></tr><tr><td style="font-weight:bold;vertical-align:top;">server_protocol</td><td style="vertical-align:top;">:</td><td><div>HTTP/1.1</div></td></tr><tr><td style="font-weight:bold;vertical-align:top;">server_software</td><td style="vertical-align:top;">:</td><td><div>nginx/1.4.1</div></td></tr><tr><td style="font-weight:bold;vertical-align:top;">uwsgi.node</td><td style="vertical-align:top;">:</td><td><div>dev-rcsousa-03</div></td></tr><tr><td style="font-weight:bold;vertical-align:top;">uwsgi.version</td><td style="vertical-align:top;">:</td><td><div>1.9.20</div></td></tr><tr><td style="font-weight:bold;vertical-align:top;">uwsgi_node</td><td style="vertical-align:top;">:</td><td><div>dev-rcsousa-03</div></td></tr><tr><td style="font-weight:bold;vertical-align:top;">uwsgi_scheme</td><td style="vertical-align:top;">:</td><td><div>https</div></td></tr><tr><td style="font-weight:bold;vertical-align:top;">uwsgi_version</td><td style="vertical-align:top;">:</td><td><div>1.9.20</div></td></tr><tr><td style="font-weight:bold;vertical-align:top;">web2py_path</td><td style="vertical-align:top;">:</td><td><div>/var/www/web2py</div></td></tr><tr><td style="font-weight:bold;vertical-align:top;">web2py_version</td><td style="vertical-align:top;">:</td><td><div>2.7.4-stable+timestamp.2013.10.14.15.16.29</div></td></tr><tr><td style="font-weight:bold;vertical-align:top;">wsgi.errors</td><td style="vertical-align:top;">:</td><td><div>&lt;open file &#x27;wsgi_errors&#x27;, mode &#x27;w&#x27; at 0x2c0a660&gt;</div></td></tr><tr><td style="font-weight:bold;vertical-align:top;">wsgi.file_wrapper</td><td style="vertical-align:top;">:</td><td><div>&lt;built-in function uwsgi_sendfile&gt;</div></td></tr><tr><td style="font-weight:bold;vertical-align:top;">wsgi.input</td><td style="vertical-align:top;">:</td><td><div>&lt;uwsgi._Input object at 0x7f7e13599930&gt;</div></td></tr><tr><td style="font-weight:bold;vertical-align:top;">wsgi.multiprocess</td><td style="vertical-align:top;">:</td><td><div>True</div></td></tr><tr><td style="font-weight:bold;vertical-align:top;">wsgi.multithread</td><td style="vertical-align:top;">:</td><td><div>False</div></td></tr><tr><td style="font-weight:bold;vertical-align:top;">wsgi.run_once</td><td style="vertical-align:top;">:</td><td><div>False</div></td></tr><tr><td style="font-weight:bold;vertical-align:top;">wsgi.url_scheme</td><td style="vertical-align:top;">:</td><td><div>https</div></td></tr><tr><td style="font-weight:bold;vertical-align:top;">wsgi.version</td><td style="vertical-align:top;">:</td><td><div><table><tr><td><div>1</div></td></tr><tr><td><div>0</div></td></tr></table></div></td></tr><tr><td style="font-weight:bold;vertical-align:top;">wsgi_errors</td><td style="vertical-align:top;">:</td><td><div>&lt;open file &#x27;wsgi_errors&#x27;, mode &#x27;w&#x27; at 0x2c0a660&gt;</div></td></tr><tr><td style="font-weight:bold;vertical-align:top;">wsgi_file_wrapper</td><td style="vertical-align:top;">:</td><td><div>&lt;built-in function uwsgi_sendfile&gt;</div></td></tr><tr><td style="font-weight:bold;vertical-align:top;">wsgi_input</td><td style="vertical-align:top;">:</td><td><div>&lt;uwsgi._Input object at 0x7f7e13599930&gt;</div></td></tr><tr><td style="font-weight:bold;vertical-align:top;">wsgi_multiprocess</td><td style="vertical-align:top;">:</td><td><div>True</div></td></tr><tr><td style="font-weight:bold;vertical-align:top;">wsgi_multithread</td><td style="vertical-align:top;">:</td><td><div>False</div></td></tr><tr><td style="font-weight:bold;vertical-align:top;">wsgi_run_once</td><td style="vertical-align:top;">:</td><td><div>False</div></td></tr><tr><td style="font-weight:bold;vertical-align:top;">wsgi_url_scheme</td><td style="vertical-align:top;">:</td><td><div>https</div></td></tr><tr><td style="font-weight:bold;vertical-align:top;">wsgi_version</td><td style="vertical-align:top;">:</td><td><div><table><tr><td><div>1</div></td></tr><tr><td><div>0</div></td></tr></table></div></td></tr></table></div></td></tr><tr><td style="font-weight:bold;vertical-align:top;">extension</td><td style="vertical-align:top;">:</td><td><div>html</div></td></tr><tr><td style="font-weight:bold;vertical-align:top;">folder</td><td style="vertical-align:top;">:</td><td><div>/var/www/web2py/applications/sco_broker/</div></td></tr><tr><td style="font-weight:bold;vertical-align:top;">function</td><td style="vertical-align:top;">:</td><td><div>test_sco</div></td></tr><tr><td style="font-weight:bold;vertical-align:top;">global_settings</td><td style="vertical-align:top;">:</td><td><div><table><tr><td style="font-weight:bold;vertical-align:top;">app_folders</td><td style="vertical-align:top;">:</td><td><div>set([&#x27;/var/www/web2py/applications/sco_broker/&#x27;])</div></td></tr><tr><td style="font-weight:bold;vertical-align:top;">applications_parent</td><td style="vertical-align:top;">:</td><td><div>/var/www/web2py</div></td></tr><tr><td style="font-weight:bold;vertical-align:top;">db_sessions</td><td style="vertical-align:top;">:</td><td><div>set([])</div></td></tr><tr><td style="font-weight:bold;vertical-align:top;">debugging</td><td style="vertical-align:top;">:</td><td><div>False</div></td></tr><tr><td style="font-weight:bold;vertical-align:top;">gluon_parent</td><td style="vertical-align:top;">:</td><td><div>/var/www/web2py</div></td></tr><tr><td style="font-weight:bold;vertical-align:top;">is_jython</td><td style="vertical-align:top;">:</td><td><div>False</div></td></tr><tr><td style="font-weight:bold;vertical-align:top;">is_pypy</td><td style="vertical-align:top;">:</td><td><div>False</div></td></tr><tr><td style="font-weight:bold;vertical-align:top;">is_source</td><td style="vertical-align:top;">:</td><td><div>True</div></td></tr><tr><td style="font-weight:bold;vertical-align:top;">local_hosts</td><td style="vertical-align:top;">:</td><td><div><table><tr><td><div>162.209.88.13</div></td></tr><tr><td><div>dev-rcsousa-03</div></td></tr><tr><td><div>10.208.146.205</div></td></tr><tr><td><div>::ffff:127.0.0.1</div></td></tr><tr><td><div>::1</div></td></tr><tr><td><div>dev-rcsousa-03.rcsousa.com.br</div></td></tr><tr><td><div>2001:4801:7821:77:8ce5:6608:ff10:afc0</div></td></tr><tr><td><div>127.0.0.1</div></td></tr></table></div></td></tr><tr><td style="font-weight:bold;vertical-align:top;">web2py_version</td><td style="vertical-align:top;">:</td><td><div>2.7.4-stable+timestamp.2013.10.14.15.16.29</div></td></tr></table></div></td></tr><tr><td style="font-weight:bold;vertical-align:top;">is_https</td><td style="vertical-align:top;">:</td><td><div>True</div></td></tr><tr><td style="font-weight:bold;vertical-align:top;">is_local</td><td style="vertical-align:top;">:</td><td><div>False</div></td></tr><tr><td style="font-weight:bold;vertical-align:top;">is_restful</td><td style="vertical-align:top;">:</td><td><div>False</div></td></tr><tr><td style="font-weight:bold;vertical-align:top;">now</td><td style="vertical-align:top;">:</td><td><div>datetime.datetime(2014, 7, 4, 15, 7, 3, 894800)</div></td></tr><tr><td style="font-weight:bold;vertical-align:top;">raw_args</td><td style="vertical-align:top;">:</td><td><div></div></td></tr><tr><td style="font-weight:bold;vertical-align:top;">raw_extension</td><td style="vertical-align:top;">:</td><td><div>None</div></td></tr><tr><td style="font-weight:bold;vertical-align:top;">url</td><td style="vertical-align:top;">:</td><td><div>/sco_broker/v2/test_sco</div></td></tr><tr><td style="font-weight:bold;vertical-align:top;">utcnow</td><td style="vertical-align:top;">:</td><td><div>datetime.datetime(2014, 7, 4, 15, 7, 3, 894886)</div></td></tr><tr><td style="font-weight:bold;vertical-align:top;">uuid</td><td style="vertical-align:top;">:</td><td><div>sco_broker/201.52.227.105.2014-07-04.15-07-03.f76176c4-7dad-4f9c-bd6c-22487c269337</div></td></tr><tr><td style="font-weight:bold;vertical-align:top;">wsgi</td><td style="vertical-align:top;">:</td><td><div>&lt;gluon.main.LazyWSGI object at 0x2ce6cd0&gt;</div></td></tr></table></div>'
tRp58
sS'frames'
p59
(lp60
(dp61
S'file'
p62
S'/var/www/web2py/gluon/restricted.py'
p63
sS'dump'
p64
(dp65
S'environment'
p66
S"{'A': <class 'gluon.html.A'>, 'ANY_OF': <class 'gluon.validators.ANY_OF'>, 'Auth': <class 'gluon.tools.Auth'>, 'B': <class 'gluon.html.B'>, 'BEAUTIFY': <class 'gluon.html.BEAUTIFY'>, 'BODY': <class 'gluon.html.BODY'>, 'BR': <class 'gluon.html.BR'>, 'BUTTON': <class 'gluon.html.BUTTON'>, 'CAT': <class 'gluon.html.CAT'>, 'CENTER': <class 'gluon.html.CENTER'>, ...}"
p67
sS'ccode'
p68
S'<code object <module> at 0x2fa65d0, file "/var/w...plications/sco_broker/controllers/v2.py", line 2>'
p69
ssS'lnum'
p70
I217
sS'lines'
p71
(dp72
I212
S'    try:'
p73
sI213
S'        if isinstance(code, types.CodeType):'
p74
sI214
S'            ccode = code'
p75
sI215
S'        else:'
p76
sI216
S'            ccode = compile2(code, layer)'
p77
sI217
S'        exec ccode in environment'
p78
sI218
S'    except HTTP:'
p79
sI219
S'        raise'
p80
sI220
S'    except RestrictedError:'
p81
sI221
S'        # do not encapsulate (obfuscate) the original RestrictedError'
p82
ssS'call'
p83
S"(code='# coding: utf8\\nauth.settings.allow_basic_login =...ponse\\n\\nresponse._vars=response._caller(test_sco)\\n', environment={'A': <class 'gluon.html.A'>, 'ANY_OF': <class 'gluon.validators.ANY_OF'>, 'Auth': <class 'gluon.tools.Auth'>, 'B': <class 'gluon.html.B'>, 'BEAUTIFY': <class 'gluon.html.BEAUTIFY'>, 'BODY': <class 'gluon.html.BODY'>, 'BR': <class 'gluon.html.BR'>, 'BUTTON': <class 'gluon.html.BUTTON'>, 'CAT': <class 'gluon.html.CAT'>, 'CENTER': <class 'gluon.html.CENTER'>, ...}, layer='/var/www/web2py/applications/sco_broker/controllers/v2.py')"
p84
sS'func'
p85
S'restricted'
p86
sa(dp87
g62
S'/var/www/web2py/applications/sco_broker/controllers/v2.py'
p88
sg64
(dp89
sg70
I88
sg71
(dp90
I77
S'                list.append(cont_deep)'
p91
sI78
S'            for y in list:'
p92
sI79
S"                if y['Config']['Hostname'] == host:"
p93
sI80
S"                    IpAddr = y['NetworkSettings']['IPAddress']"
p94
sI81
S"                    Port = y['NetworkSettings']['Ports']"
p95
sI82
S'            response = {"credentials": {"password": password,"host": IpAddr,"port": Port}}'
p96
sI83
S'            return response'
p97
sI84
S'        if request.env.request_method == "DELETE":'
p98
sI85
S'            response = {}'
p99
sI86
S'            return response'
p100
ssg83
S'()'
p101
sg85
S'<module>'
p102
sa(dp103
g62
S'/var/www/web2py/gluon/globals.py'
p104
sg64
(dp105
S'self'
p106
S'undefined'
p107
sS'f'
S'<function test_sco>'
p108
ssg70
I372
sg71
(dp109
I367
S'        self.menu = []             # used by the default view layout'
p110
sI368
S'        self.files = []            # used by web2py_ajax.html'
p111
sI369
S'        self.generic_patterns = []  # patterns to allow generic views'
p112
sI370
S"        self.delimiters = ('{{', '}}')"
p113
sI371
S'        self._vars = None'
p114
sI372
S'        self._caller = lambda f: f()'
p115
sI373
S'        self._view_environment = None'
p116
sI374
S'        self._custom_commit = None'
p117
sI375
S'        self._custom_rollback = None'
p118
sI376
S''
ssg83
S'(f=<function test_sco>)'
p119
sg85
S'<lambda>'
p120
sa(dp121
g62
S'/var/www/web2py/gluon/tools.py'
p122
sg64
(dp123
S'action'
p124
S'<function test_sco>'
p125
sS'a'
S'()'
p126
sS'b'
g45
ssg70
I3239
sg71
(dp127
I3234
S'                    flag = condition'
p128
sI3235
S'                if not flag:'
p129
sI3236
S'                    current.session.flash = self.messages.access_denied'
p130
sI3237
S'                    return call_or_redirect('
p131
sI3238
S'                        self.settings.on_failed_authorization)'
p132
sI3239
S'                return action(*a, **b)'
p133
sI3240
S'            f.__doc__ = action.__doc__'
p134
sI3241
S'            f.__name__ = action.__name__'
p135
sI3242
S'            f.__dict__.update(action.__dict__)'
p136
sI3243
S'            return f'
p137
ssg83
S'(*a=(), **b={})'
p138
sg85
S'f'
sa(dp139
g62
S'/var/www/web2py/applications/sco_broker/controllers/v2.py'
p140
sg64
(dp141
S'json.load'
p142
S'<function load>'
p143
sS'json'
p144
S"<module 'json' from '/usr/lib64/python2.6/json/__init__.pyc'>"
p145
sS'build_content'
p146
g107
sS'json_content'
p147
S"<closed file '/sco_pattern.json', mode 'r'>"
p148
ssg70
I27
sg71
(dp149
I22
S"    sco_api_url = data['pattern']['api_ep'][0]['url']"
p150
sI23
S"    sco_api_user = data['pattern']['api_ep'][0]['user']"
p151
sI24
S"    sco_api_password = data['pattern']['api_ep'][0]['password']"
p152
sI25
S"    sco_api_headers = data['pattern']['api_ep'][0]['headers']"
p153
sI26
S"    with open('/sco_pattern.json') as json_content:"
p154
sI27
S'        build_content = json.load(json_content)'
p155
sI28
S"    r = requests.post(sco_api_url+'/resources/virtualSystems', verify=False, auth=(sco_api_user, sco_api_password), headers=sco_api_headers, data=build_content)"
p156
sI29
S'    return r.text'
p157
sI30
S''
sI31
S''
ssg83
S'()'
p158
sg85
S'test_sco'
p159
sa(dp160
g62
S'/usr/lib64/python2.6/json/__init__.py'
p161
sg64
(dp162
S'parse_constant'
p163
S'None'
p164
sS'kw'
p165
g45
ssg70
I267
sg71
(dp166
I262
S''
sI263
S'    """'
p167
sI264
S'    return loads(fp.read(),'
p168
sI265
S'        encoding=encoding, cls=cls, object_hook=object_hook,'
p169
sI266
S'        parse_float=parse_float, parse_int=parse_int,'
p170
sI267
S'        parse_constant=parse_constant, **kw)'
p171
sI268
S''
sI269
S''
sI270
S'def loads(s, encoding=None, cls=None, object_hook=None, parse_float=None,'
p172
sI271
S'        parse_int=None, parse_constant=None, **kw):'
p173
ssg83
S"(fp=<closed file '/sco_pattern.json', mode 'r'>, encoding=None, cls=None, object_hook=None, parse_float=None, parse_int=None, parse_constant=None, **kw={})"
p174
sg85
S'load'
p175
sa(dp176
g62
S'/usr/lib64/python2.6/json/__init__.py'
p177
sg64
(dp178
S's'
S'\'{\\n    "environmentProfile": "\\\\/resources\\\\/enviro...], \\n    "pattern": "\\\\/resources\\\\/patterns\\\\/34"\\n}\\n\''
p179
sS'global _default_decoder'
p180
S'<json.decoder.JSONDecoder object>'
p181
sS'_default_decoder.decode'
p182
S'<bound method JSONDecoder.decode of <json.decoder.JSONDecoder object>>'
p183
ssg70
I307
sg71
(dp184
I302
S''
sI303
S'    """'
p185
sI304
S'    if (cls is None and encoding is None and object_hook is None and'
p186
sI305
S'            parse_int is None and parse_float is None and'
p187
sI306
S'            parse_constant is None and not kw):'
p188
sI307
S'        return _default_decoder.decode(s)'
p189
sI308
S'    if cls is None:'
p190
sI309
S'        cls = JSONDecoder'
p191
sI310
S'    if object_hook is not None:'
p192
sI311
S"        kw['object_hook'] = object_hook"
p193
ssg83
S'(s=\'{\\n    "environmentProfile": "\\\\/resources\\\\/enviro...], \\n    "pattern": "\\\\/resources\\\\/patterns\\\\/34"\\n}\\n\', encoding=None, cls=None, object_hook=None, parse_float=None, parse_int=None, parse_constant=None, **kw={})'
p194
sg85
S'loads'
p195
sa(dp196
g62
S'/usr/lib64/python2.6/json/decoder.py'
p197
sg64
(dp198
S').end'
p199
g107
sS'end'
p200
g107
sS'idx'
p201
g107
sS'_w'
p202
S'<built-in method match of _sre.SRE_Pattern object>'
p203
sS'self'
p204
S'<json.decoder.JSONDecoder object>'
p205
sS's'
S'\'{\\n    "environmentProfile": "\\\\/resources\\\\/enviro...], \\n    "pattern": "\\\\/resources\\\\/patterns\\\\/34"\\n}\\n\''
p206
sS'self.raw_decode'
p207
S'<bound method JSONDecoder.raw_decode of <json.decoder.JSONDecoder object>>'
p208
sS'obj'
p209
g107
ssg70
I319
sg71
(dp210
I320
S'        end = _w(s, end).end()'
p211
sI321
S'        if end != len(s):'
p212
sI322
S'            raise ValueError(errmsg("Extra data", s, end, len(s)))'
p213
sI323
S'        return obj'
p214
sI314
S'        """'
p215
sI315
S'        Return the Python representation of ``s`` (a ``str`` or ``unicode``'
p216
sI316
S'        instance containing a JSON document)'
p217
sI317
S''
sI318
S'        """'
p218
sI319
S'        obj, end = self.raw_decode(s, idx=_w(s, 0).end())'
p219
ssg83
S'(self=<json.decoder.JSONDecoder object>, s=\'{\\n    "environmentProfile": "\\\\/resources\\\\/enviro...], \\n    "pattern": "\\\\/resources\\\\/patterns\\\\/34"\\n}\\n\', _w=<built-in method match of _sre.SRE_Pattern object>)'
p220
sg85
S'decode'
p221
sa(dp222
g62
S'/usr/lib64/python2.6/json/decoder.py'
p223
sg64
(dp224
S'end'
p225
g107
sS').next'
p226
g107
sS'self'
p227
S'<json.decoder.JSONDecoder object>'
p228
sS'self._scanner'
p229
S'<json.scanner.Scanner object>'
p230
sS's'
S'\'{\\n    "environmentProfile": "\\\\/resources\\\\/enviro...], \\n    "pattern": "\\\\/resources\\\\/patterns\\\\/34"\\n}\\n\''
p231
sS'kw'
p232
S"{'context': <json.decoder.JSONDecoder object>, 'idx': 0}"
p233
sS'obj'
p234
g107
sS'self._scanner.iterscan'
p235
S'<bound method Scanner.iterscan of <json.scanner.Scanner object>>'
p236
ssg70
I336
sg71
(dp237
I330
S'        This can be used to decode a JSON document from a string that may'
p238
sI331
S'        have extraneous data at the end.'
p239
sI332
S''
sI333
S'        """'
p240
sI334
S"        kw.setdefault('context', self)"
p241
sI335
S'        try:'
p242
sI336
S'            obj, end = self._scanner.iterscan(s, **kw).next()'
p243
sI337
S'        except StopIteration:'
p244
sI338
S'            raise ValueError("No JSON object could be decoded")'
p245
sI339
S'        return obj, end'
p246
ssg83
S'(self=<json.decoder.JSONDecoder object>, s=\'{\\n    "environmentProfile": "\\\\/resources\\\\/enviro...], \\n    "pattern": "\\\\/resources\\\\/patterns\\\\/34"\\n}\\n\', **kw={\'context\': <json.decoder.JSONDecoder object>, \'idx\': 0})'
p247
sg85
S'raw_decode'
p248
sa(dp249
g62
S'/usr/lib64/python2.6/json/scanner.py'
p250
sg64
(dp251
S'next_pos'
p252
g107
sS'action'
p253
S'<function JSONObject>'
p254
sS'rval'
p255
g107
sS'm'
S'<_sre.SRE_Match object>'
p256
sS'context'
p257
S'<json.decoder.JSONDecoder object>'
p258
ssg70
I55
sg71
(dp259
I50
S'            matchbegin, matchend = m.span()'
p260
sI51
S'            if lastend == matchend:'
p261
sI52
S'                break'
p262
sI53
S'            action = actions[m.lastindex]'
p263
sI54
S'            if action is not None:'
p264
sI55
S'                rval, next_pos = action(m, context)'
p265
sI56
S'                if next_pos is not None and next_pos != matchend:'
p266
sI57
S'                    # "fast forward" the scanner'
p267
sI58
S'                    matchend = next_pos'
p268
sI59
S'                    match = self.scanner.scanner(string, matchend).match'
p269
ssg83
S'(self=<json.scanner.Scanner object>, string=\'{\\n    "environmentProfile": "\\\\/resources\\\\/enviro...], \\n    "pattern": "\\\\/resources\\\\/patterns\\\\/34"\\n}\\n\', idx=0, context=<json.decoder.JSONDecoder object>)'
p270
sg85
S'iterscan'
p271
sa(dp272
g62
S'/usr/lib64/python2.6/json/decoder.py'
p273
sg64
(dp274
S'iterscan'
p275
S'<bound method Scanner.iterscan of <json.scanner.Scanner object>>'
p276
sS'end'
p277
S'105'
p278
sS'idx'
p279
g107
sS'value'
p280
S"u'rcsousa'"
p281
sS's'
S'\'{\\n    "environmentProfile": "\\\\/resources\\\\/enviro...], \\n    "pattern": "\\\\/resources\\\\/patterns\\\\/34"\\n}\\n\''
p282
sS'context'
p283
S'<json.decoder.JSONDecoder object>'
p284
sS').next'
p285
g107
ssg70
I183
sg71
(dp286
I178
S'        end = _w(s, end).end()'
p287
sI179
S"        if s[end:end + 1] != ':':"
p288
sI180
S'            raise ValueError(errmsg("Expecting : delimiter", s, end))'
p289
sI181
S'        end = _w(s, end + 1).end()'
p290
sI182
S'        try:'
p291
sI183
S'            value, end = iterscan(s, idx=end, context=context).next()'
p292
sI184
S'        except StopIteration:'
p293
sI185
S'            raise ValueError(errmsg("Expecting object", s, end))'
p294
sI186
S'        pairs[key] = value'
p295
sI187
S'        end = _w(s, end).end()'
p296
ssg83
S'(match=<_sre.SRE_Match object>, context=<json.decoder.JSONDecoder object>, _w=<built-in method match of _sre.SRE_Pattern object>)'
p297
sg85
S'JSONObject'
p298
sa(dp299
g62
S'/usr/lib64/python2.6/json/scanner.py'
p300
sg64
(dp301
S'next_pos'
p302
g107
sS'action'
p303
S'<function JSONArray>'
p304
sS'rval'
p305
g107
sS'm'
S'<_sre.SRE_Match object>'
p306
sS'context'
p307
S'<json.decoder.JSONDecoder object>'
p308
ssg70
I55
sg71
(dp309
I50
S'            matchbegin, matchend = m.span()'
p310
sI51
S'            if lastend == matchend:'
p311
sI52
S'                break'
p312
sI53
S'            action = actions[m.lastindex]'
p313
sI54
S'            if action is not None:'
p314
sI55
S'                rval, next_pos = action(m, context)'
p315
sI56
S'                if next_pos is not None and next_pos != matchend:'
p316
sI57
S'                    # "fast forward" the scanner'
p317
sI58
S'                    matchend = next_pos'
p318
sI59
S'                    match = self.scanner.scanner(string, matchend).match'
p319
ssg83
S'(self=<json.scanner.Scanner object>, string=\'{\\n    "environmentProfile": "\\\\/resources\\\\/enviro...], \\n    "pattern": "\\\\/resources\\\\/patterns\\\\/34"\\n}\\n\', idx=105, context=<json.decoder.JSONDecoder object>)'
p320
sg85
g271
sa(dp321
g62
S'/usr/lib64/python2.6/json/decoder.py'
p322
sg64
(dp323
S'iterscan'
p324
S'<bound method Scanner.iterscan of <json.scanner.Scanner object>>'
p325
sS'end'
p326
S'115'
p327
sS'idx'
p328
g107
sS'value'
p329
g107
sS's'
S'\'{\\n    "environmentProfile": "\\\\/resources\\\\/enviro...], \\n    "pattern": "\\\\/resources\\\\/patterns\\\\/34"\\n}\\n\''
p330
sS'context'
p331
S'<json.decoder.JSONDecoder object>'
p332
sS').next'
p333
g107
ssg70
I217
sg71
(dp334
I212
S"    if nextchar == ']':"
p335
sI213
S'        return values, end + 1'
p336
sI214
S'    iterscan = JSONScanner.iterscan'
p337
sI215
S'    while True:'
p338
sI216
S'        try:'
p339
sI217
S'            value, end = iterscan(s, idx=end, context=context).next()'
p340
sI218
S'        except StopIteration:'
p341
sI219
S'            raise ValueError(errmsg("Expecting object", s, end))'
p342
sI220
S'        values.append(value)'
p343
sI221
S'        end = _w(s, end).end()'
p344
ssg83
S'(match=<_sre.SRE_Match object>, context=<json.decoder.JSONDecoder object>, _w=<built-in method match of _sre.SRE_Pattern object>)'
p345
sg85
S'JSONArray'
p346
sa(dp347
g62
S'/usr/lib64/python2.6/json/scanner.py'
p348
sg64
(dp349
S'next_pos'
p350
g107
sS'action'
p351
S'<function JSONObject>'
p352
sS'rval'
p353
g107
sS'm'
S'<_sre.SRE_Match object>'
p354
sS'context'
p355
S'<json.decoder.JSONDecoder object>'
p356
ssg70
I55
sg71
(dp357
I50
S'            matchbegin, matchend = m.span()'
p358
sI51
S'            if lastend == matchend:'
p359
sI52
S'                break'
p360
sI53
S'            action = actions[m.lastindex]'
p361
sI54
S'            if action is not None:'
p362
sI55
S'                rval, next_pos = action(m, context)'
p363
sI56
S'                if next_pos is not None and next_pos != matchend:'
p364
sI57
S'                    # "fast forward" the scanner'
p365
sI58
S'                    matchend = next_pos'
p366
sI59
S'                    match = self.scanner.scanner(string, matchend).match'
p367
ssg83
S'(self=<json.scanner.Scanner object>, string=\'{\\n    "environmentProfile": "\\\\/resources\\\\/enviro...], \\n    "pattern": "\\\\/resources\\\\/patterns\\\\/34"\\n}\\n\', idx=115, context=<json.decoder.JSONDecoder object>)'
p368
sg85
g271
sa(dp369
g62
S'/usr/lib64/python2.6/json/decoder.py'
p370
sg64
(dp371
S'global errmsg'
p372
S'<function errmsg>'
p373
sS'end'
p374
S'376'
p375
sS's'
S'\'{\\n    "environmentProfile": "\\\\/resources\\\\/enviro...], \\n    "pattern": "\\\\/resources\\\\/patterns\\\\/34"\\n}\\n\''
p376
sS'builtinValueError'
p377
S"<type 'exceptions.ValueError'>"
p378
ssg70
I198
sg71
(dp379
I193
S'            raise ValueError(errmsg("Expecting , delimiter", s, end - 1))'
p380
sI194
S'        end = _w(s, end).end()'
p381
sI195
S'        nextchar = s[end:end + 1]'
p382
sI196
S'        end += 1'
p383
sI197
S'        if nextchar != \'"\':'
p384
sI198
S'            raise ValueError(errmsg("Expecting property name", s, end - 1))'
p385
sI199
S"    object_hook = getattr(context, 'object_hook', None)"
p386
sI200
S'    if object_hook is not None:'
p387
sI201
S'        pairs = object_hook(pairs)'
p388
sI202
S'    return pairs, end'
p389
ssg83
S'(match=<_sre.SRE_Match object>, context=<json.decoder.JSONDecoder object>, _w=<built-in method match of _sre.SRE_Pattern object>)'
p390
sg85
g298
sasS'pyver'
p391
S'Python 2.6.6: /usr/bin/uwsgi (prefix: /usr)'
p392
sS'session'
p393
g57
(S'st\t\x00\x00<div><table><tr><td style="font-weight:bold;vertical-align:top;">auth</td><td style="vertical-align:top;">:</td><td><div><table><tr><td style="font-weight:bold;vertical-align:top;">expiration</td><td style="vertical-align:top;">:</td><td><div>3600</div></td></tr><tr><td style="font-weight:bold;vertical-align:top;">hmac_key</td><td style="vertical-align:top;">:</td><td><div>0500b677-0367-40c8-8d2f-5b3af9bd7833</div></td></tr><tr><td style="font-weight:bold;vertical-align:top;">last_visit</td><td style="vertical-align:top;">:</td><td><div>datetime.datetime(2014, 7, 4, 15, 6, 16, 15802)</div></td></tr><tr><td style="font-weight:bold;vertical-align:top;">remember</td><td style="vertical-align:top;">:</td><td><div>False</div></td></tr><tr><td style="font-weight:bold;vertical-align:top;">user</td><td style="vertical-align:top;">:</td><td><div><table><tr><td style="font-weight:bold;vertical-align:top;">email</td><td style="vertical-align:top;">:</td><td><div>ricardo.c.sousa@gmail.com</div></td></tr><tr><td style="font-weight:bold;vertical-align:top;">first_name</td><td style="vertical-align:top;">:</td><td><div>ricardo</div></td></tr><tr><td style="font-weight:bold;vertical-align:top;">id</td><td style="vertical-align:top;">:</td><td><div>1L</div></td></tr><tr><td style="font-weight:bold;vertical-align:top;">last_name</td><td style="vertical-align:top;">:</td><td><div>sousa</div></td></tr><tr><td style="font-weight:bold;vertical-align:top;">registration_id</td><td style="vertical-align:top;">:</td><td><div></div></td></tr><tr><td style="font-weight:bold;vertical-align:top;">registration_key</td><td style="vertical-align:top;">:</td><td><div></div></td></tr><tr><td style="font-weight:bold;vertical-align:top;">reset_password_key</td><td style="vertical-align:top;">:</td><td><div></div></td></tr><tr><td style="font-weight:bold;vertical-align:top;">username</td><td style="vertical-align:top;">:</td><td><div>rcsousa</div></td></tr></table></div></td></tr><tr><td style="font-weight:bold;vertical-align:top;">user_groups</td><td style="vertical-align:top;">:</td><td><div><table><tr><td style="font-weight:bold;vertical-align:top;">1</td><td style="vertical-align:top;">:</td><td><div>user_1</div></td></tr></table></div></td></tr></table></div></td></tr><tr><td style="font-weight:bold;vertical-align:top;">flash</td><td style="vertical-align:top;">:</td><td><div>None</div></td></tr></table></div>'
tRp394
sS'etype'
p395
S"<type 'exceptions.ValueError'>"
p396
sS'date'
p397
S'Fri Jul  4 15:07:04 2014'
p398
sS'response'
p399
g57
(S's-2\x00\x00<div><table><tr><td style="font-weight:bold;vertical-align:top;">body</td><td style="vertical-align:top;">:</td><td><div>&lt;cStringIO.StringO object at 0x2ce8df8&gt;</div></td></tr><tr><td style="font-weight:bold;vertical-align:top;">cookies</td><td style="vertical-align:top;">:</td><td><div><table><tr><td style="font-weight:bold;vertical-align:top;">session_id_sco_broker</td><td style="vertical-align:top;">:</td><td><div>201.52.227.105-1abdabde-97c0-4e09-85c7-f6683020c254<table><tr><td style="font-weight:bold;vertical-align:top;">comment</td><td style="vertical-align:top;">:</td><td><div></div></td></tr><tr><td style="font-weight:bold;vertical-align:top;">domain</td><td style="vertical-align:top;">:</td><td><div></div></td></tr><tr><td style="font-weight:bold;vertical-align:top;">expires</td><td style="vertical-align:top;">:</td><td><div></div></td></tr><tr><td style="font-weight:bold;vertical-align:top;">httponly</td><td style="vertical-align:top;">:</td><td><div></div></td></tr><tr><td style="font-weight:bold;vertical-align:top;">max-age</td><td style="vertical-align:top;">:</td><td><div></div></td></tr><tr><td style="font-weight:bold;vertical-align:top;">path</td><td style="vertical-align:top;">:</td><td><div>/</div></td></tr><tr><td style="font-weight:bold;vertical-align:top;">secure</td><td style="vertical-align:top;">:</td><td><div></div></td></tr><tr><td style="font-weight:bold;vertical-align:top;">version</td><td style="vertical-align:top;">:</td><td><div></div></td></tr></table></div></td></tr></table></div></td></tr><tr><td style="font-weight:bold;vertical-align:top;">delimiters</td><td style="vertical-align:top;">:</td><td><div><table><tr><td><div>{{</div></td></tr><tr><td><div>}}</div></td></tr></table></div></td></tr><tr><td style="font-weight:bold;vertical-align:top;">files</td><td style="vertical-align:top;">:</td><td><div><table></table></div></td></tr><tr><td style="font-weight:bold;vertical-align:top;">flash</td><td style="vertical-align:top;">:</td><td><div></div></td></tr><tr><td style="font-weight:bold;vertical-align:top;">generic_patterns</td><td style="vertical-align:top;">:</td><td><div><table></table></div></td></tr><tr><td style="font-weight:bold;vertical-align:top;">google_analytics_id</td><td style="vertical-align:top;">:</td><td><div>None</div></td></tr><tr><td style="font-weight:bold;vertical-align:top;">headers</td><td style="vertical-align:top;">:</td><td><div><table><tr><td style="font-weight:bold;vertical-align:top;">X-Powered-By</td><td style="vertical-align:top;">:</td><td><div>web2py</div></td></tr></table></div></td></tr><tr><td style="font-weight:bold;vertical-align:top;">logo</td><td style="vertical-align:top;">:</td><td><div><a class="brand" data-w2p_disable_with="default" href="http://www.web2py.com/"><b>web<span>2</span>py</b>&trade;&nbsp;</a></div></td></tr><tr><td style="font-weight:bold;vertical-align:top;">menu</td><td style="vertical-align:top;">:</td><td><div><table><tr><td><div><table><tr><td><div>Home</div></td></tr><tr><td><div>False</div></td></tr><tr><td><div>/sco_broker/default/index</div></td></tr><tr><td><div><table></table></div></td></tr></table></div></td></tr><tr><td><div><table><tr><td><div><span class="highlighted">web2py</span></div></td></tr><tr><td><div>False</div></td></tr><tr><td><div>http://web2py.com</div></td></tr><tr><td><div><table><tr><td><div><table><tr><td><div>My Sites</div></td></tr><tr><td><div>False</div></td></tr><tr><td><div>/admin/default/site</div></td></tr></table></div></td></tr><tr><td><div><table><tr><td><div>This App</div></td></tr><tr><td><div>False</div></td></tr><tr><td><div>/admin/default/design/sco_broker</div></td></tr><tr><td><div>[(&lt;lazyT &#x27;Controller&#x27;&gt;, False, &#x27;/admin/default/edit/sco_broker/controllers/v2.py&#x27;), (&lt;lazyT &#x27;View&#x27;&gt;, False, &#x27;/admin/default/edit/sco_broker/views/v2/test_sco.html&#x27;), (&lt;lazyT &#x27;Layout&#x27;&gt;, False, &#x27;/admin/default/edit/sco_broker/views/layout.html&#x27;), (&lt;lazyT &#x27;Stylesheet&#x27;&gt;, False, &#x27;/admin/default/edit/sco_broker/static/css/web2py.css&#x27;), (&lt;lazyT &#x27;DB Model&#x27;&gt;, False, &#x27;/admin/default/edit/sco_broker/models/db.py&#x27;), (&lt;lazyT &#x27;Menu Model&#x27;&gt;, False, &#x27;/admin/default/edit/sco_broker/models/menu.py&#x27;), (&lt;lazyT &#x27;Database&#x27;&gt;, False, &#x27;/sco_broker/appadmin/index&#x27;), (&lt;lazyT &#x27;Errors&#x27;&gt;, False, &#x27;/admin/default/errors/sco_broker&#x27;), (&lt;lazyT &#x27;About&#x27;&gt;, False, &#x27;/admin/default/about/sco_broker&#x27;)]</div></td></tr></table></div></td></tr><tr><td><div><table><tr><td><div>web2py.com</div></td></tr><tr><td><div>False</div></td></tr><tr><td><div>http://www.web2py.com</div></td></tr><tr><td><div>[(&lt;lazyT &#x27;Download&#x27;&gt;, False, &#x27;http://www.web2py.com/examples/default/download&#x27;), (&lt;lazyT &#x27;Support&#x27;&gt;, False, &#x27;http://www.web2py.com/examples/default/support&#x27;), (&lt;lazyT &#x27;Demo&#x27;&gt;, False, &#x27;http://web2py.com/demo_admin&#x27;), (&lt;lazyT &#x27;Quick Examples&#x27;&gt;, False, &#x27;http://web2py.com/examples/default/examples&#x27;), (&lt;lazyT &#x27;FAQ&#x27;&gt;, False, &#x27;http://web2py.com/AlterEgo&#x27;), (&lt;lazyT &#x27;Videos&#x27;&gt;, False, &#x27;http://www.web2py.com/examples/default/videos/&#x27;), (&lt;lazyT &#x27;Free Applications&#x27;&gt;, False, &#x27;http://web2py.com/appliances&#x27;), (&lt;lazyT &#x27;Plugins&#x27;&gt;, False, &#x27;http://web2py.com/plugins&#x27;), (&lt;lazyT &#x27;Layouts&#x27;&gt;, False, &#x27;http://web2py.com/layouts&#x27;), (&lt;lazyT &#x27;Recipes&#x27;&gt;, False, &#x27;http://web2pyslices.com/&#x27;), (&lt;lazyT &#x27;Semantic&#x27;&gt;, False, &#x27;http://web2py.com/semantic&#x27;)]</div></td></tr></table></div></td></tr><tr><td><div><table><tr><td><div>Documentation</div></td></tr><tr><td><div>False</div></td></tr><tr><td><div>http://www.web2py.com/book</div></td></tr><tr><td><div>[(&lt;lazyT &#x27;Preface&#x27;&gt;, False, &#x27;http://www.web2py.com/book/default/chapter/00&#x27;), (&lt;lazyT &#x27;Introduction&#x27;&gt;, False, &#x27;http://www.web2py.com/book/default/chapter/01&#x27;), (&lt;lazyT &#x27;Python&#x27;&gt;, False, &#x27;http://www.web2py.com/book/default/chapter/02&#x27;), (&lt;lazyT &#x27;Overview&#x27;&gt;, False, &#x27;http://www.web2py.com/book/default/chapter/03&#x27;), (&lt;lazyT &#x27;The Core&#x27;&gt;, False, &#x27;http://www.web2py.com/book/default/chapter/04&#x27;), (&lt;lazyT &#x27;The Views&#x27;&gt;, False, &#x27;http://www.web2py.com/book/default/chapter/05&#x27;), (&lt;lazyT &#x27;Database&#x27;&gt;, False, &#x27;http://www.web2py.com/book/default/chapter/06&#x27;), (&lt;lazyT &#x27;Forms and Validators&#x27;&gt;, False, &#x27;http://www.web2py.com/book/default/chapter/07&#x27;), (&lt;lazyT &#x27;Email and SMS&#x27;&gt;, False, &#x27;http://www.web2py.com/book/default/chapter/08&#x27;), (&lt;lazyT &#x27;Access Control&#x27;&gt;, False, &#x27;http://www.web2py.com/book/default/chapter/09&#x27;), (&lt;lazyT &#x27;Services&#x27;&gt;, False, &#x27;http://www.web2py.com/book/default/chapter/10&#x27;), (&lt;lazyT &#x27;Ajax Recipes&#x27;&gt;, False, &#x27;http://www.web2py.com/book/default/chapter/11&#x27;), (&lt;lazyT &#x27;Components and Plugins&#x27;&gt;, False, &#x27;http://www.web2py.com/book/default/chapter/12&#x27;), (&lt;lazyT &#x27;Deployment Recipes&#x27;&gt;, False, &#x27;http://www.web2py.com/book/default/chapter/13&#x27;), (&lt;lazyT &#x27;Other Recipes&#x27;&gt;, False, &#x27;http://www.web2py.com/book/default/chapter/14&#x27;), (&lt;lazyT &#x27;Buy this book&#x27;&gt;, False, &#x27;http://stores.lulu.com/web2py&#x27;)]</div></td></tr></table></div></td></tr><tr><td><div><table><tr><td><div>Community</div></td></tr><tr><td><div>False</div></td></tr><tr><td><div>None</div></td></tr><tr><td><div>[(&lt;lazyT &#x27;Groups&#x27;&gt;, False, &#x27;http://www.web2py.com/examples/default/usergroups&#x27;), (&lt;lazyT &#x27;Twitter&#x27;&gt;, False, &#x27;http://twitter.com/web2py&#x27;), (&lt;lazyT &#x27;Live Chat&#x27;&gt;, False, &#x27;http://webchat.freenode.net/?channels=web2py&#x27;)]</div></td></tr></table></div></td></tr><tr><td><div><table><tr><td><div>Plugins</div></td></tr><tr><td><div>False</div></td></tr><tr><td><div>None</div></td></tr><tr><td><div>[(&#x27;plugin_wiki&#x27;, False, &#x27;http://web2py.com/examples/default/download&#x27;), (&lt;lazyT &#x27;Other Plugins&#x27;&gt;, False, &#x27;http://web2py.com/plugins&#x27;), (&lt;lazyT &#x27;Layout Plugins&#x27;&gt;, False, &#x27;http://web2py.com/layouts&#x27;)]</div></td></tr></table></div></td></tr></table></div></td></tr></table></div></td></tr></table></div></td></tr><tr><td style="font-weight:bold;vertical-align:top;">meta</td><td style="vertical-align:top;">:</td><td><div><table><tr><td style="font-weight:bold;vertical-align:top;">author</td><td style="vertical-align:top;">:</td><td><div>Your Name &lt;you@example.com&gt;</div></td></tr><tr><td style="font-weight:bold;vertical-align:top;">description</td><td style="vertical-align:top;">:</td><td><div>a cool new app</div></td></tr><tr><td style="font-weight:bold;vertical-align:top;">generator</td><td style="vertical-align:top;">:</td><td><div>Web2py Web Framework</div></td></tr><tr><td style="font-weight:bold;vertical-align:top;">keywords</td><td style="vertical-align:top;">:</td><td><div>web2py, python, framework</div></td></tr></table></div></td></tr><tr><td style="font-weight:bold;vertical-align:top;">models_to_run</td><td style="vertical-align:top;">:</td><td><div><table><tr><td><div>^\\w+\\.py$</div></td></tr><tr><td><div>^v2/\\w+\\.py$</div></td></tr><tr><td><div>^v2/test_sco/\\w+\\.py$</div></td></tr></table></div></td></tr><tr><td style="font-weight:bold;vertical-align:top;">postprocessing</td><td style="vertical-align:top;">:</td><td><div><table></table></div></td></tr><tr><td style="font-weight:bold;vertical-align:top;">session_client</td><td style="vertical-align:top;">:</td><td><div>201.52.227.105</div></td></tr><tr><td style="font-weight:bold;vertical-align:top;">session_cookie_compression_level</td><td style="vertical-align:top;">:</td><td><div>None</div></td></tr><tr><td style="font-weight:bold;vertical-align:top;">session_cookie_expires</td><td style="vertical-align:top;">:</td><td><div>None</div></td></tr><tr><td style="font-weight:bold;vertical-align:top;">session_cookie_key</td><td style="vertical-align:top;">:</td><td><div>None</div></td></tr><tr><td style="font-weight:bold;vertical-align:top;">session_data_name</td><td style="vertical-align:top;">:</td><td><div>session_data_sco_broker</div></td></tr><tr><td style="font-weight:bold;vertical-align:top;">session_file</td><td style="vertical-align:top;">:</td><td><div>&lt;open file &#x27;/var/www/web2py/applications/sco_broker/sessions/201.52.227.105-1abdabde-97c0-4e09-85c7-f6683020c254&#x27;, mode &#x27;rb+&#x27; at 0x2c3c390&gt;</div></td></tr><tr><td style="font-weight:bold;vertical-align:top;">session_filename</td><td style="vertical-align:top;">:</td><td><div>/var/www/web2py/applications/sco_broker/sessions/201.52.227.105-1abdabde-97c0-4e09-85c7-f6683020c254</div></td></tr><tr><td style="font-weight:bold;vertical-align:top;">session_hash</td><td style="vertical-align:top;">:</td><td><div>0596dd53e0eb02f2733bdc0f8a689425</div></td></tr><tr><td style="font-weight:bold;vertical-align:top;">session_id</td><td style="vertical-align:top;">:</td><td><div>201.52.227.105-1abdabde-97c0-4e09-85c7-f6683020c254</div></td></tr><tr><td style="font-weight:bold;vertical-align:top;">session_id_name</td><td style="vertical-align:top;">:</td><td><div>session_id_sco_broker</div></td></tr><tr><td style="font-weight:bold;vertical-align:top;">session_locked</td><td style="vertical-align:top;">:</td><td><div>True</div></td></tr><tr><td style="font-weight:bold;vertical-align:top;">session_masterapp</td><td style="vertical-align:top;">:</td><td><div>sco_broker</div></td></tr><tr><td style="font-weight:bold;vertical-align:top;">session_new</td><td style="vertical-align:top;">:</td><td><div>False</div></td></tr><tr><td style="font-weight:bold;vertical-align:top;">session_storage_type</td><td style="vertical-align:top;">:</td><td><div>file</div></td></tr><tr><td style="font-weight:bold;vertical-align:top;">status</td><td style="vertical-align:top;">:</td><td><div>200</div></td></tr><tr><td style="font-weight:bold;vertical-align:top;">subtitle</td><td style="vertical-align:top;">:</td><td><div></div></td></tr><tr><td style="font-weight:bold;vertical-align:top;">title</td><td style="vertical-align:top;">:</td><td><div>Sco Broker</div></td></tr><tr><td style="font-weight:bold;vertical-align:top;">view</td><td style="vertical-align:top;">:</td><td><div>v2/test_sco.html</div></td></tr></table></div>'
tRp400
sS'locals'
p401
(dp402
g271
S'<bound method Scanner.iterscan of <json.scanner.Scanner object>>'
p403
sS'pairs'
p404
S"{u'cloud': u'/resources/clouds/1', u'id': 1, u'nics': [[{u'ipGroup': u'/resources/ipGroups/22'}]]}"
p405
sS'end'
p406
S'376'
p407
sS'key'
p408
S"u'nics'"
p409
sS'encoding'
p410
S'None'
p411
sS'_w'
p412
S'<built-in method match of _sre.SRE_Pattern object>'
p413
sS'value'
p414
S"[[{u'ipGroup': u'/resources/ipGroups/22'}]]"
p415
sS'strict'
p416
S'True'
p417
sS's'
S'\'{\\n    "environmentProfile": "\\\\/resources\\\\/enviro...], \\n    "pattern": "\\\\/resources\\\\/patterns\\\\/34"\\n}\\n\''
p418
sS'context'
p419
S'<json.decoder.JSONDecoder object>'
p420
sS'nextchar'
p421
S"'}'"
p422
sS'match'
p423
S'<_sre.SRE_Match object>'
p424
sssS'traceback'
p425
S'Traceback (most recent call last):\n  File "/var/www/web2py/gluon/restricted.py", line 217, in restricted\n    exec ccode in environment\n  File "/var/www/web2py/applications/sco_broker/controllers/v2.py", line 88, in <module>\n  File "/var/www/web2py/gluon/globals.py", line 372, in <lambda>\n    self._caller = lambda f: f()\n  File "/var/www/web2py/gluon/tools.py", line 3239, in f\n    return action(*a, **b)\n  File "/var/www/web2py/applications/sco_broker/controllers/v2.py", line 27, in test_sco\n    build_content = json.load(json_content)\n  File "/usr/lib64/python2.6/json/__init__.py", line 267, in load\n    parse_constant=parse_constant, **kw)\n  File "/usr/lib64/python2.6/json/__init__.py", line 307, in loads\n    return _default_decoder.decode(s)\n  File "/usr/lib64/python2.6/json/decoder.py", line 319, in decode\n    obj, end = self.raw_decode(s, idx=_w(s, 0).end())\n  File "/usr/lib64/python2.6/json/decoder.py", line 336, in raw_decode\n    obj, end = self._scanner.iterscan(s, **kw).next()\n  File "/usr/lib64/python2.6/json/scanner.py", line 55, in iterscan\n    rval, next_pos = action(m, context)\n  File "/usr/lib64/python2.6/json/decoder.py", line 183, in JSONObject\n    value, end = iterscan(s, idx=end, context=context).next()\n  File "/usr/lib64/python2.6/json/scanner.py", line 55, in iterscan\n    rval, next_pos = action(m, context)\n  File "/usr/lib64/python2.6/json/decoder.py", line 217, in JSONArray\n    value, end = iterscan(s, idx=end, context=context).next()\n  File "/usr/lib64/python2.6/json/scanner.py", line 55, in iterscan\n    rval, next_pos = action(m, context)\n  File "/usr/lib64/python2.6/json/decoder.py", line 198, in JSONObject\n    raise ValueError(errmsg("Expecting property name", s, end - 1))\nValueError: Expecting property name: line 15 column 9 (char 375)\n'
p426
s.